target datalayout = "e-m:e-p270:32:32-p271:32:32-p272:64:64-i64:64-i128:128-f80:128-n8:16:32:64-S128"
target triple = "x86_64-pc-linux-gnu"

%"class.cvc5::internal::NodeTemplate" = type { ptr }
%"class.cvc5::internal::TypeNode" = type { ptr }

; Function Attrs: mustprogress uwtable
define linkonce_odr hidden void @_ZN4cvc58internal4expr9NodeValue3incEv(ptr noundef nonnull align 8 dereferenceable(24) %0) #6 comdat align 2 {
  %2 = alloca ptr, align 8
  store ptr %0, ptr %2, align 8, !tbaa !156
  %3 = load ptr, ptr %2, align 8
  %4 = load i64, ptr %3, align 8
  %5 = lshr i64 %4, 40
  %6 = and i64 %5, 1048575
  %7 = trunc i64 %6 to i32
  %8 = icmp ult i32 %7, 1048574
  %9 = zext i1 %8 to i64
  %10 = call i64 @llvm.expect.i64(i64 %9, i64 1)
  %11 = icmp ne i64 %10, 0
  br i1 %11, label %12, label %24

12:                                               ; preds = %1
  %13 = load i64, ptr %3, align 8
  %14 = lshr i64 %13, 40
  %15 = and i64 %14, 1048575
  %16 = trunc i64 %15 to i32
  %17 = add i32 %16, 1
  %18 = zext i32 %17 to i64
  %19 = load i64, ptr %3, align 8
  %20 = and i64 %18, 1048575
  %21 = shl i64 %20, 40
  %22 = and i64 %19, -1152920405095219201
  %23 = or i64 %22, %21
  store i64 %23, ptr %3, align 8
  br label %46

24:                                               ; preds = %1
  %25 = load i64, ptr %3, align 8
  %26 = lshr i64 %25, 40
  %27 = and i64 %26, 1048575
  %28 = trunc i64 %27 to i32
  %29 = icmp eq i32 %28, 1048574
  %30 = zext i1 %29 to i64
  %31 = call i64 @llvm.expect.i64(i64 %30, i64 0)
  %32 = icmp ne i64 %31, 0
  br i1 %32, label %33, label %45

33:                                               ; preds = %24
  %34 = load i64, ptr %3, align 8
  %35 = lshr i64 %34, 40
  %36 = and i64 %35, 1048575
  %37 = trunc i64 %36 to i32
  %38 = add i32 %37, 1
  %39 = zext i32 %38 to i64
  %40 = load i64, ptr %3, align 8
  %41 = and i64 %39, 1048575
  %42 = shl i64 %41, 40
  %43 = and i64 %40, -1152920405095219201
  %44 = or i64 %43, %42
  store i64 %44, ptr %3, align 8
  call void @_ZN4cvc58internal4expr9NodeValue20markRefCountMaxedOutEv(ptr noundef nonnull align 8 dereferenceable(24) %3)
  br label %45

45:                                               ; preds = %33, %24
  br label %46

46:                                               ; preds = %45, %12
  ret void
}

; Function Attrs: inlinehint mustprogress nounwind uwtable
define linkonce_odr hidden void @_ZNK4cvc58internal12NodeTemplateILb0EE21assertTNodeNotExpiredEv(ptr noundef nonnull align 8 dereferenceable(8) %0) #8 comdat align 2 {
  %2 = alloca ptr, align 8
  store ptr %0, ptr %2, align 8, !tbaa !56
  ret void
}

; Function Attrs: inlinehint mustprogress uwtable
define linkonce_odr hidden void @_ZN4cvc58internal8TypeNodeC2ERKS1_(ptr noundef nonnull align 8 dereferenceable(8) %0, ptr noundef nonnull align 8 dereferenceable(8) %1) unnamed_addr #7 comdat align 2 {
  %3 = alloca ptr, align 8
  %4 = alloca ptr, align 8
  store ptr %0, ptr %3, align 8, !tbaa !65
  store ptr %1, ptr %4, align 8, !tbaa !65
  %5 = load ptr, ptr %3, align 8
  %6 = load ptr, ptr %4, align 8, !tbaa !65
  %7 = getelementptr inbounds nuw %"class.cvc5::internal::TypeNode", ptr %6, i32 0, i32 0
  %8 = load ptr, ptr %7, align 8, !tbaa !67
  %9 = getelementptr inbounds nuw %"class.cvc5::internal::TypeNode", ptr %5, i32 0, i32 0
  store ptr %8, ptr %9, align 8, !tbaa !67
  %10 = getelementptr inbounds nuw %"class.cvc5::internal::TypeNode", ptr %5, i32 0, i32 0
  %11 = load ptr, ptr %10, align 8, !tbaa !67
  call void @_ZN4cvc58internal4expr9NodeValue3incEv(ptr noundef nonnull align 8 dereferenceable(24) %11)
  ret void
}

; Function Attrs: mustprogress nounwind uwtable
define linkonce_odr hidden noundef zeroext i1 @_ZNK4cvc58internal12NodeTemplateILb0EEeqILb0EEEbRKNS1_IXT_EEE(ptr noundef nonnull align 8 dereferenceable(8) %0, ptr noundef nonnull align 8 dereferenceable(8) %1) #4 comdat align 2 {
  %3 = alloca ptr, align 8
  %4 = alloca ptr, align 8
  store ptr %0, ptr %3, align 8, !tbaa !56
  store ptr %1, ptr %4, align 8, !tbaa !56
  %5 = load ptr, ptr %3, align 8
  call void @_ZNK4cvc58internal12NodeTemplateILb0EE21assertTNodeNotExpiredEv(ptr noundef nonnull align 8 dereferenceable(8) %5)
  %6 = load ptr, ptr %4, align 8, !tbaa !56
  call void @_ZNK4cvc58internal12NodeTemplateILb0EE21assertTNodeNotExpiredEv(ptr noundef nonnull align 8 dereferenceable(8) %6)
  %7 = getelementptr inbounds nuw %"class.cvc5::internal::NodeTemplate", ptr %5, i32 0, i32 0
  %8 = load ptr, ptr %7, align 8, !tbaa !58
  %9 = load ptr, ptr %4, align 8, !tbaa !56
  %10 = getelementptr inbounds nuw %"class.cvc5::internal::NodeTemplate", ptr %9, i32 0, i32 0
  %11 = load ptr, ptr %10, align 8, !tbaa !58
  %12 = icmp eq ptr %8, %11
  ret i1 %12
}

; Function Attrs: mustprogress nounwind uwtable
define linkonce_odr hidden void @_ZN4cvc58internal12NodeTemplateILb0EED2Ev(ptr noundef nonnull align 8 dereferenceable(8) %0) unnamed_addr #4 comdat align 2 {
  %2 = alloca ptr, align 8
  store ptr %0, ptr %2, align 8, !tbaa !56
  ret void
}

; Function Attrs: mustprogress nounwind uwtable
define linkonce_odr hidden void @_ZN4cvc58internal12NodeTemplateILb0EEC2ERKS2_(ptr noundef nonnull align 8 dereferenceable(8) %0, ptr noundef nonnull align 8 dereferenceable(8) %1) unnamed_addr #4 comdat align 2 {
  %3 = alloca ptr, align 8
  %4 = alloca ptr, align 8
  store ptr %0, ptr %3, align 8, !tbaa !56
  store ptr %1, ptr %4, align 8, !tbaa !56
  %5 = load ptr, ptr %3, align 8
  %6 = load ptr, ptr %4, align 8, !tbaa !56
  %7 = getelementptr inbounds nuw %"class.cvc5::internal::NodeTemplate", ptr %6, i32 0, i32 0
  %8 = load ptr, ptr %7, align 8, !tbaa !58
  %9 = getelementptr inbounds nuw %"class.cvc5::internal::NodeTemplate", ptr %5, i32 0, i32 0
  store ptr %8, ptr %9, align 8, !tbaa !58
  ret void
}

; Function Attrs: mustprogress uwtable
define hidden noundef zeroext i1 @_ZN4cvc58internal16isAlreadyVisitedERNS0_3EnvEjNS0_12NodeTemplateILb0EEES4_(ptr noundef nonnull align 8 dereferenceable(696) %0, i32 noundef %1, ptr noundef %2, ptr noundef %3) #6 personality ptr @__gxx_personality_v0 {
  %5 = alloca i1, align 1
  %6 = alloca ptr, align 8
  %7 = alloca i32, align 4
  %8 = alloca ptr, align 8
  %9 = alloca ptr, align 8
  %10 = alloca i32, align 4
  %11 = alloca %"class.cvc5::internal::NodeTemplate", align 8
  %12 = alloca ptr, align 8
  %13 = alloca i32, align 4
  %14 = alloca i32, align 4
  %15 = alloca i32, align 4
  %16 = alloca %"class.cvc5::internal::NodeTemplate", align 8
  %17 = alloca %"class.cvc5::internal::TypeNode", align 8
  %18 = alloca %"class.cvc5::internal::TypeNode", align 8
  %19 = alloca i1, align 1
  %20 = alloca i32, align 4
  %21 = alloca %"class.cvc5::internal::TypeNode", align 8
  store ptr %0, ptr %6, align 8, !tbaa !60
  store i32 %1, ptr %7, align 4, !tbaa !62
  store ptr %2, ptr %8, align 8, !tbaa !56
  store ptr %3, ptr %9, align 8, !tbaa !56
  call void @llvm.lifetime.start.p0(i64 4, ptr %10) #3
  %22 = load ptr, ptr %6, align 8, !tbaa !60
  call void @_ZN4cvc58internal12NodeTemplateILb0EEC2ERKS2_(ptr noundef nonnull align 8 dereferenceable(8) %11, ptr noundef nonnull align 8 dereferenceable(8) %2)
  %23 = invoke noundef i32 @_ZNK4cvc58internal3Env8theoryOfENS0_12NodeTemplateILb0EEE(ptr noundef nonnull align 8 dereferenceable(696) %22, ptr noundef %11)
          to label %24 unwind label %29

24:                                               ; preds = %4
  call void @_ZN4cvc58internal12NodeTemplateILb0EED2Ev(ptr noundef nonnull align 8 dereferenceable(8) %11) #3
  store i32 %23, ptr %10, align 4, !tbaa !63
  %25 = load i32, ptr %10, align 4, !tbaa !63
  %26 = load i32, ptr %7, align 4, !tbaa !62
  %27 = call noundef zeroext i1 @_ZN4cvc58internal6theory15TheoryIdSetUtil11setContainsENS1_8TheoryIdEj(i32 noundef %25, i32 noundef %26)
  br i1 %27, label %33, label %28

28:                                               ; preds = %24
  store i1 false, ptr %5, align 1
  store i32 1, ptr %14, align 4
  br label %97

29:                                               ; preds = %4
  %30 = landingpad { ptr, i32 }
          cleanup
  %31 = extractvalue { ptr, i32 } %30, 0
  store ptr %31, ptr %12, align 8
  %32 = extractvalue { ptr, i32 } %30, 1
  store i32 %32, ptr %13, align 4
  call void @_ZN4cvc58internal12NodeTemplateILb0EED2Ev(ptr noundef nonnull align 8 dereferenceable(8) %11) #3
  br label %99

33:                                               ; preds = %24
  %34 = call noundef zeroext i1 @_ZNK4cvc58internal12NodeTemplateILb0EEeqILb0EEEbRKNS1_IXT_EEE(ptr noundef nonnull align 8 dereferenceable(8) %2, ptr noundef nonnull align 8 dereferenceable(8) %3)
  br i1 %34, label %35, label %36

35:                                               ; preds = %33
  store i1 true, ptr %5, align 1
  store i32 1, ptr %14, align 4
  br label %97

36:                                               ; preds = %33
  call void @llvm.lifetime.start.p0(i64 4, ptr %15) #3
  %37 = load ptr, ptr %6, align 8, !tbaa !60
  call void @_ZN4cvc58internal12NodeTemplateILb0EEC2ERKS2_(ptr noundef nonnull align 8 dereferenceable(8) %16, ptr noundef nonnull align 8 dereferenceable(8) %3)
  %38 = invoke noundef i32 @_ZNK4cvc58internal3Env8theoryOfENS0_12NodeTemplateILb0EEE(ptr noundef nonnull align 8 dereferenceable(696) %37, ptr noundef %16)
          to label %39 unwind label %44

39:                                               ; preds = %36
  call void @_ZN4cvc58internal12NodeTemplateILb0EED2Ev(ptr noundef nonnull align 8 dereferenceable(8) %16) #3
  store i32 %38, ptr %15, align 4, !tbaa !63
  %40 = load i32, ptr %15, align 4, !tbaa !63
  %41 = load i32, ptr %7, align 4, !tbaa !62
  %42 = call noundef zeroext i1 @_ZN4cvc58internal6theory15TheoryIdSetUtil11setContainsENS1_8TheoryIdEj(i32 noundef %40, i32 noundef %41)
  br i1 %42, label %48, label %43

43:                                               ; preds = %39
  store i1 false, ptr %5, align 1
  store i32 1, ptr %14, align 4
  br label %95

44:                                               ; preds = %36
  %45 = landingpad { ptr, i32 }
          cleanup
  %46 = extractvalue { ptr, i32 } %45, 0
  store ptr %46, ptr %12, align 8
  %47 = extractvalue { ptr, i32 } %45, 1
  store i32 %47, ptr %13, align 4
  call void @_ZN4cvc58internal12NodeTemplateILb0EED2Ev(ptr noundef nonnull align 8 dereferenceable(8) %16) #3
  br label %96

48:                                               ; preds = %39
  call void @llvm.lifetime.start.p0(i64 8, ptr %17) #3
  call void @_ZNK4cvc58internal12NodeTemplateILb0EE7getTypeEb(ptr dead_on_unwind writable sret(%"class.cvc5::internal::TypeNode") align 8 %17, ptr noundef nonnull align 8 dereferenceable(8) %2, i1 noundef zeroext false)
  %49 = load i32, ptr %10, align 4, !tbaa !63
  %50 = load i32, ptr %15, align 4, !tbaa !63
  %51 = icmp eq i32 %49, %50
  store i1 false, ptr %19, align 1
  br i1 %51, label %52, label %58

52:                                               ; preds = %48
  %53 = load ptr, ptr %6, align 8, !tbaa !60
  invoke void @_ZN4cvc58internal8TypeNodeC2ERKS1_(ptr noundef nonnull align 8 dereferenceable(8) %18, ptr noundef nonnull align 8 dereferenceable(8) %17)
          to label %54 unwind label %64

54:                                               ; preds = %52
  store i1 true, ptr %19, align 1
  %55 = invoke noundef zeroext i1 @_ZNK4cvc58internal3Env12isFiniteTypeENS0_8TypeNodeE(ptr noundef nonnull align 8 dereferenceable(696) %53, ptr noundef %18)
          to label %56 unwind label %68

56:                                               ; preds = %54
  %57 = xor i1 %55, true
  br label %58

58:                                               ; preds = %56, %48
  %59 = phi i1 [ false, %48 ], [ %57, %56 ]
  %60 = load i1, ptr %19, align 1
  br i1 %60, label %61, label %62

61:                                               ; preds = %58
  call void @_ZN4cvc58internal8TypeNodeD2Ev(ptr noundef nonnull align 8 dereferenceable(8) %18) #3
  br label %62

62:                                               ; preds = %61, %58
  br i1 %59, label %63, label %75

63:                                               ; preds = %62
  store i1 true, ptr %5, align 1
  store i32 1, ptr %14, align 4
  br label %93

64:                                               ; preds = %52
  %65 = landingpad { ptr, i32 }
          cleanup
  %66 = extractvalue { ptr, i32 } %65, 0
  store ptr %66, ptr %12, align 8
  %67 = extractvalue { ptr, i32 } %65, 1
  store i32 %67, ptr %13, align 4
  br label %94

68:                                               ; preds = %54
  %69 = landingpad { ptr, i32 }
          cleanup
  %70 = extractvalue { ptr, i32 } %69, 0
  store ptr %70, ptr %12, align 8
  %71 = extractvalue { ptr, i32 } %69, 1
  store i32 %71, ptr %13, align 4
  %72 = load i1, ptr %19, align 1
  br i1 %72, label %73, label %74

73:                                               ; preds = %68
  call void @_ZN4cvc58internal8TypeNodeD2Ev(ptr noundef nonnull align 8 dereferenceable(8) %18) #3
  br label %74

74:                                               ; preds = %73, %68
  br label %94

75:                                               ; preds = %62
  call void @llvm.lifetime.start.p0(i64 4, ptr %20) #3
  %76 = load ptr, ptr %6, align 8, !tbaa !60
  invoke void @_ZN4cvc58internal8TypeNodeC2ERKS1_(ptr noundef nonnull align 8 dereferenceable(8) %21, ptr noundef nonnull align 8 dereferenceable(8) %17)
          to label %77 unwind label %84

77:                                               ; preds = %75
  %78 = invoke noundef i32 @_ZNK4cvc58internal3Env8theoryOfENS0_8TypeNodeE(ptr noundef nonnull align 8 dereferenceable(696) %76, ptr noundef %21)
          to label %79 unwind label %88

79:                                               ; preds = %77
  call void @_ZN4cvc58internal8TypeNodeD2Ev(ptr noundef nonnull align 8 dereferenceable(8) %21) #3
  store i32 %78, ptr %20, align 4, !tbaa !63
  %80 = load i32, ptr %20, align 4, !tbaa !63
  %81 = load i32, ptr %7, align 4, !tbaa !62
  %82 = invoke noundef zeroext i1 @_ZN4cvc58internal6theory15TheoryIdSetUtil11setContainsENS1_8TheoryIdEj(i32 noundef %80, i32 noundef %81)
          to label %83 unwind label %84

83:                                               ; preds = %79
  store i1 %82, ptr %5, align 1
  store i32 1, ptr %14, align 4
  call void @llvm.lifetime.end.p0(i64 4, ptr %20) #3
  br label %93

84:                                               ; preds = %79, %75
  %85 = landingpad { ptr, i32 }
          cleanup
  %86 = extractvalue { ptr, i32 } %85, 0
  store ptr %86, ptr %12, align 8
  %87 = extractvalue { ptr, i32 } %85, 1
  store i32 %87, ptr %13, align 4
  br label %92

88:                                               ; preds = %77
  %89 = landingpad { ptr, i32 }
          cleanup
  %90 = extractvalue { ptr, i32 } %89, 0
  store ptr %90, ptr %12, align 8
  %91 = extractvalue { ptr, i32 } %89, 1
  store i32 %91, ptr %13, align 4
  call void @_ZN4cvc58internal8TypeNodeD2Ev(ptr noundef nonnull align 8 dereferenceable(8) %21) #3
  br label %92

92:                                               ; preds = %88, %84
  call void @llvm.lifetime.end.p0(i64 4, ptr %20) #3
  br label %94

93:                                               ; preds = %83, %63
  call void @_ZN4cvc58internal8TypeNodeD2Ev(ptr noundef nonnull align 8 dereferenceable(8) %17) #3
  call void @llvm.lifetime.end.p0(i64 8, ptr %17) #3
  br label %95

94:                                               ; preds = %92, %74, %64
  call void @_ZN4cvc58internal8TypeNodeD2Ev(ptr noundef nonnull align 8 dereferenceable(8) %17) #3
  call void @llvm.lifetime.end.p0(i64 8, ptr %17) #3
  br label %96

95:                                               ; preds = %93, %43
  call void @llvm.lifetime.end.p0(i64 4, ptr %15) #3
  br label %97

96:                                               ; preds = %94, %44
  call void @llvm.lifetime.end.p0(i64 4, ptr %15) #3
  br label %99

97:                                               ; preds = %95, %35, %28
  call void @llvm.lifetime.end.p0(i64 4, ptr %10) #3
  %98 = load i1, ptr %5, align 1
  ret i1 %98

99:                                               ; preds = %96, %29
  call void @llvm.lifetime.end.p0(i64 4, ptr %10) #3
  br label %100

100:                                              ; preds = %99
  %101 = load ptr, ptr %12, align 8
  %102 = load i32, ptr %13, align 4
  %103 = insertvalue { ptr, i32 } poison, ptr %101, 0
  %104 = insertvalue { ptr, i32 } %103, i32 %102, 1
  resume { ptr, i32 } %104
}