; Function Attrs: mustprogress uwtable
define hidden noundef zeroext i1 @_ZN4cvc58internal16isAlreadyVisitedERNS0_3EnvEjNS0_12NodeTemplateILb0EEES4_(ptr noundef nonnull align 8 dereferenceable(696) %0, i32 noundef %1, ptr noundef %2, ptr noundef readonly captures(none) %3) local_unnamed_addr #4 personality ptr @__gxx_personality_v0 {
  %5 = alloca %"class.cvc5::internal::NodeTemplate", align 8
  %6 = alloca %"class.cvc5::internal::NodeTemplate", align 8
  %7 = alloca %"class.cvc5::internal::TypeNode", align 8
  %8 = alloca %"class.cvc5::internal::TypeNode", align 8
  %9 = alloca %"class.cvc5::internal::TypeNode", align 8
  %10 = load ptr, ptr %2, align 8, !tbaa !25
  store ptr %10, ptr %5, align 8, !tbaa !25
  %11 = call noundef i32 @_ZNK4cvc58internal3Env8theoryOfENS0_12NodeTemplateILb0EEE(ptr noundef nonnull align 8 dereferenceable(696) %0, ptr noundef nonnull %5)
  %12 = call noundef zeroext i1 @_ZN4cvc58internal6theory15TheoryIdSetUtil11setContainsENS1_8TheoryIdEj(i32 noundef %11, i32 noundef %1)
  br i1 %12, label %13, label %107

13:                                               ; preds = %4
  %14 = load ptr, ptr %2, align 8, !tbaa !25
  %15 = load ptr, ptr %3, align 8, !tbaa !25
  %16 = icmp eq ptr %14, %15
  br i1 %16, label %107, label %17

17:                                               ; preds = %13
  store ptr %15, ptr %6, align 8, !tbaa !25
  %18 = call noundef i32 @_ZNK4cvc58internal3Env8theoryOfENS0_12NodeTemplateILb0EEE(ptr noundef nonnull align 8 dereferenceable(696) %0, ptr noundef nonnull %6)
  %19 = call noundef zeroext i1 @_ZN4cvc58internal6theory15TheoryIdSetUtil11setContainsENS1_8TheoryIdEj(i32 noundef %18, i32 noundef %1)
  br i1 %19, label %20, label %107

20:                                               ; preds = %17
  call void @llvm.lifetime.start.p0(i64 8, ptr nonnull %7) #22
  call void @_ZNK4cvc58internal12NodeTemplateILb0EE7getTypeEb(ptr dead_on_unwind nonnull writable sret(%"class.cvc5::internal::TypeNode") align 8 %7, ptr noundef nonnull align 8 dereferenceable(8) %2, i1 noundef zeroext false)
  %21 = icmp eq i32 %11, %18
  br i1 %21, label %22, label %_ZN4cvc58internal8TypeNodeD2Ev.exit.thread

22:                                               ; preds = %20
  %23 = load ptr, ptr %7, align 8, !tbaa !78
  store ptr %23, ptr %8, align 8, !tbaa !78
  %24 = load i64, ptr %23, align 8
  %25 = lshr i64 %24, 40
  %26 = trunc nuw nsw i64 %25 to i32
  %27 = and i32 %26, 1048575
  %28 = icmp samesign ult i32 %27, 1048574
  br i1 %28, label %29, label %34, !prof !80

29:                                               ; preds = %22
  %30 = add i64 %24, 1099511627776
  %31 = and i64 %30, 1152920405095219200
  %32 = and i64 %24, -1152920405095219201
  %33 = or disjoint i64 %31, %32
  store i64 %33, ptr %23, align 8
  br label %_ZN4cvc58internal8TypeNodeC2ERKS1_.exit

34:                                               ; preds = %22
  %35 = icmp eq i32 %27, 1048574
  br i1 %35, label %36, label %_ZN4cvc58internal8TypeNodeC2ERKS1_.exit, !prof !81

36:                                               ; preds = %34
  %37 = or i64 %24, 1152920405095219200
  store i64 %37, ptr %23, align 8
  invoke void @_ZN4cvc58internal4expr9NodeValue20markRefCountMaxedOutEv(ptr noundef nonnull align 8 dereferenceable(24) %23)
          to label %_ZN4cvc58internal8TypeNodeC2ERKS1_.exit unwind label %53

_ZN4cvc58internal8TypeNodeC2ERKS1_.exit:          ; preds = %34, %29, %36
  %38 = invoke noundef zeroext i1 @_ZNK4cvc58internal3Env12isFiniteTypeENS0_8TypeNodeE(ptr noundef nonnull align 8 dereferenceable(696) %0, ptr noundef nonnull %8)
          to label %39 unwind label %55

39:                                               ; preds = %_ZN4cvc58internal8TypeNodeC2ERKS1_.exit
  %40 = load ptr, ptr %8, align 8, !tbaa !78
  %41 = load i64, ptr %40, align 8
  %42 = and i64 %41, 1152920405095219200
  %.not.i.i = icmp eq i64 %42, 1152920405095219200
  br i1 %.not.i.i, label %_ZN4cvc58internal8TypeNodeD2Ev.exit, label %43, !prof !81

43:                                               ; preds = %39
  %44 = add i64 %41, 1152920405095219200
  %45 = and i64 %44, 1152920405095219200
  %46 = and i64 %41, -1152920405095219201
  %47 = or disjoint i64 %45, %46
  store i64 %47, ptr %40, align 8
  %48 = icmp eq i64 %45, 0
  br i1 %48, label %49, label %_ZN4cvc58internal8TypeNodeD2Ev.exit, !prof !81

49:                                               ; preds = %43
  invoke void @_ZN4cvc58internal4expr9NodeValue15markForDeletionEv(ptr noundef nonnull align 8 dereferenceable(24) %40)
          to label %_ZN4cvc58internal8TypeNodeD2Ev.exit unwind label %50

50:                                               ; preds = %49
  %51 = landingpad { ptr, i32 }
          catch ptr null
  %52 = extractvalue { ptr, i32 } %51, 0
  call void @__clang_call_terminate(ptr %52) #25
  unreachable

_ZN4cvc58internal8TypeNodeD2Ev.exit:              ; preds = %49, %43, %39
  br i1 %38, label %_ZN4cvc58internal8TypeNodeD2Ev.exit.thread, label %92

53:                                               ; preds = %36
  %54 = landingpad { ptr, i32 }
          cleanup
  br label %106

55:                                               ; preds = %_ZN4cvc58internal8TypeNodeC2ERKS1_.exit
  %56 = landingpad { ptr, i32 }
          cleanup
  call void @_ZN4cvc58internal8TypeNodeD2Ev(ptr noundef nonnull align 8 dereferenceable(8) %8) #22
  br label %106

_ZN4cvc58internal8TypeNodeD2Ev.exit.thread:       ; preds = %20, %_ZN4cvc58internal8TypeNodeD2Ev.exit
  %57 = load ptr, ptr %7, align 8, !tbaa !78
  store ptr %57, ptr %9, align 8, !tbaa !78
  %58 = load i64, ptr %57, align 8
  %59 = lshr i64 %58, 40
  %60 = trunc nuw nsw i64 %59 to i32
  %61 = and i32 %60, 1048575
  %62 = icmp samesign ult i32 %61, 1048574
  br i1 %62, label %63, label %68, !prof !80

63:                                               ; preds = %_ZN4cvc58internal8TypeNodeD2Ev.exit.thread
  %64 = add i64 %58, 1099511627776
  %65 = and i64 %64, 1152920405095219200
  %66 = and i64 %58, -1152920405095219201
  %67 = or disjoint i64 %65, %66
  store i64 %67, ptr %57, align 8
  br label %_ZN4cvc58internal8TypeNodeC2ERKS1_.exit29

68:                                               ; preds = %_ZN4cvc58internal8TypeNodeD2Ev.exit.thread
  %69 = icmp eq i32 %61, 1048574
  br i1 %69, label %70, label %_ZN4cvc58internal8TypeNodeC2ERKS1_.exit29, !prof !81

70:                                               ; preds = %68
  %71 = or i64 %58, 1152920405095219200
  store i64 %71, ptr %57, align 8
  invoke void @_ZN4cvc58internal4expr9NodeValue20markRefCountMaxedOutEv(ptr noundef nonnull align 8 dereferenceable(24) %57)
          to label %_ZN4cvc58internal8TypeNodeC2ERKS1_.exit29 unwind label %88

_ZN4cvc58internal8TypeNodeC2ERKS1_.exit29:        ; preds = %68, %63, %70
  %72 = invoke noundef i32 @_ZNK4cvc58internal3Env8theoryOfENS0_8TypeNodeE(ptr noundef nonnull align 8 dereferenceable(696) %0, ptr noundef nonnull %9)
          to label %73 unwind label %90

73:                                               ; preds = %_ZN4cvc58internal8TypeNodeC2ERKS1_.exit29
  %74 = load ptr, ptr %9, align 8, !tbaa !78
  %75 = load i64, ptr %74, align 8
  %76 = and i64 %75, 1152920405095219200
  %.not.i.i30 = icmp eq i64 %76, 1152920405095219200
  br i1 %.not.i.i30, label %_ZN4cvc58internal8TypeNodeD2Ev.exit31, label %77, !prof !81

77:                                               ; preds = %73
  %78 = add i64 %75, 1152920405095219200
  %79 = and i64 %78, 1152920405095219200
  %80 = and i64 %75, -1152920405095219201
  %81 = or disjoint i64 %79, %80
  store i64 %81, ptr %74, align 8
  %82 = icmp eq i64 %79, 0
  br i1 %82, label %83, label %_ZN4cvc58internal8TypeNodeD2Ev.exit31, !prof !81

83:                                               ; preds = %77
  invoke void @_ZN4cvc58internal4expr9NodeValue15markForDeletionEv(ptr noundef nonnull align 8 dereferenceable(24) %74)
          to label %_ZN4cvc58internal8TypeNodeD2Ev.exit31 unwind label %84

84:                                               ; preds = %83
  %85 = landingpad { ptr, i32 }
          catch ptr null
  %86 = extractvalue { ptr, i32 } %85, 0
  call void @__clang_call_terminate(ptr %86) #25
  unreachable

_ZN4cvc58internal8TypeNodeD2Ev.exit31:            ; preds = %73, %77, %83
  %87 = invoke noundef zeroext i1 @_ZN4cvc58internal6theory15TheoryIdSetUtil11setContainsENS1_8TheoryIdEj(i32 noundef %72, i32 noundef %1)
          to label %92 unwind label %88

88:                                               ; preds = %70, %_ZN4cvc58internal8TypeNodeD2Ev.exit31
  %89 = landingpad { ptr, i32 }
          cleanup
  br label %106

90:                                               ; preds = %_ZN4cvc58internal8TypeNodeC2ERKS1_.exit29
  %91 = landingpad { ptr, i32 }
          cleanup
  call void @_ZN4cvc58internal8TypeNodeD2Ev(ptr noundef nonnull align 8 dereferenceable(8) %9) #22
  br label %106

92:                                               ; preds = %_ZN4cvc58internal8TypeNodeD2Ev.exit31, %_ZN4cvc58internal8TypeNodeD2Ev.exit
  %.2 = phi i1 [ true, %_ZN4cvc58internal8TypeNodeD2Ev.exit ], [ %87, %_ZN4cvc58internal8TypeNodeD2Ev.exit31 ]
  %93 = load ptr, ptr %7, align 8, !tbaa !78
  %94 = load i64, ptr %93, align 8
  %95 = and i64 %94, 1152920405095219200
  %.not.i.i32 = icmp eq i64 %95, 1152920405095219200
  br i1 %.not.i.i32, label %_ZN4cvc58internal8TypeNodeD2Ev.exit33, label %96, !prof !81

96:                                               ; preds = %92
  %97 = add i64 %94, 1152920405095219200
  %98 = and i64 %97, 1152920405095219200
  %99 = and i64 %94, -1152920405095219201
  %100 = or disjoint i64 %98, %99
  store i64 %100, ptr %93, align 8
  %101 = icmp eq i64 %98, 0
  br i1 %101, label %102, label %_ZN4cvc58internal8TypeNodeD2Ev.exit33, !prof !81

102:                                              ; preds = %96
  invoke void @_ZN4cvc58internal4expr9NodeValue15markForDeletionEv(ptr noundef nonnull align 8 dereferenceable(24) %93)
          to label %_ZN4cvc58internal8TypeNodeD2Ev.exit33 unwind label %103

103:                                              ; preds = %102
  %104 = landingpad { ptr, i32 }
          catch ptr null
  %105 = extractvalue { ptr, i32 } %104, 0
  call void @__clang_call_terminate(ptr %105) #25
  unreachable

_ZN4cvc58internal8TypeNodeD2Ev.exit33:            ; preds = %92, %96, %102
  call void @llvm.lifetime.end.p0(i64 8, ptr nonnull %7) #22
  br label %107

106:                                              ; preds = %88, %90, %55, %53
  %.pn.pn = phi { ptr, i32 } [ %56, %55 ], [ %54, %53 ], [ %89, %88 ], [ %91, %90 ]
  call void @_ZN4cvc58internal8TypeNodeD2Ev(ptr noundef nonnull align 8 dereferenceable(8) %7) #22
  call void @llvm.lifetime.end.p0(i64 8, ptr nonnull %7) #22
  resume { ptr, i32 } %.pn.pn

107:                                              ; preds = %_ZN4cvc58internal8TypeNodeD2Ev.exit33, %17, %13, %4
  %.0 = phi i1 [ false, %4 ], [ true, %13 ], [ %.2, %_ZN4cvc58internal8TypeNodeD2Ev.exit33 ], [ false, %17 ]
  ret i1 %.0
}